; ModuleID = '13/714.c'
source_filename = "13/714.c"
target datalayout = "e-m:e-p270:32:32-p271:32:32-p272:64:64-i64:64-f80:128-n8:16:32:64-S128"
target triple = "x86_64-pc-linux-gnu"

@.str = private unnamed_addr constant [3 x i8] c"%d\00", align 1
@.str.1 = private unnamed_addr constant [4 x i8] c" %d\00", align 1

; Function Attrs: noinline nounwind uwtable
define dso_local i32 @main() #0 {
  %1 = alloca i32, align 4
  %2 = alloca i32, align 4
  %3 = alloca [20000 x i32], align 16
  %4 = alloca [20000 x i32], align 16
  %5 = alloca i32, align 4
  %6 = alloca i32, align 4
  %7 = alloca i32, align 4
  store i32 0, i32* %1, align 4
  %8 = call i32 (i8*, ...) @__isoc99_scanf(i8* getelementptr inbounds ([3 x i8], [3 x i8]* @.str, i64 0, i64 0), i32* %2)
  store i32 0, i32* %5, align 4
  br label %9

9:                                                ; preds = %18, %0
  %10 = load i32, i32* %5, align 4
  %11 = load i32, i32* %2, align 4
  %12 = icmp slt i32 %10, %11
  br i1 %12, label %13, label %21

13:                                               ; preds = %9
  %14 = load i32, i32* %5, align 4
  %15 = sext i32 %14 to i64
  %16 = getelementptr inbounds [20000 x i32], [20000 x i32]* %3, i64 0, i64 %15
  %17 = call i32 (i8*, ...) @__isoc99_scanf(i8* getelementptr inbounds ([3 x i8], [3 x i8]* @.str, i64 0, i64 0), i32* %16)
  br label %18

18:                                               ; preds = %13
  %19 = load i32, i32* %5, align 4
  %20 = add nsw i32 %19, 1
  store i32 %20, i32* %5, align 4
  br label %9

21:                                               ; preds = %9
  store i32 0, i32* %7, align 4
  %22 = load i32, i32* %2, align 4
  %23 = sub nsw i32 %22, 1
  store i32 %23, i32* %5, align 4
  br label %24

24:                                               ; preds = %62, %21
  %25 = load i32, i32* %5, align 4
  %26 = icmp sgt i32 %25, 0
  br i1 %26, label %27, label %65

27:                                               ; preds = %24
  %28 = load i32, i32* %5, align 4
  %29 = sub nsw i32 %28, 1
  store i32 %29, i32* %6, align 4
  br label %30

30:                                               ; preds = %45, %27
  %31 = load i32, i32* %6, align 4
  %32 = icmp sge i32 %31, 0
  br i1 %32, label %33, label %48

33:                                               ; preds = %30
  %34 = load i32, i32* %5, align 4
  %35 = sext i32 %34 to i64
  %36 = getelementptr inbounds [20000 x i32], [20000 x i32]* %3, i64 0, i64 %35
  %37 = load i32, i32* %36, align 4
  %38 = load i32, i32* %6, align 4
  %39 = sext i32 %38 to i64
  %40 = getelementptr inbounds [20000 x i32], [20000 x i32]* %3, i64 0, i64 %39
  %41 = load i32, i32* %40, align 4
  %42 = icmp eq i32 %37, %41
  br i1 %42, label %43, label %44

43:                                               ; preds = %33
  br label %48

44:                                               ; preds = %33
  br label %45

45:                                               ; preds = %44
  %46 = load i32, i32* %6, align 4
  %47 = add nsw i32 %46, -1
  store i32 %47, i32* %6, align 4
  br label %30

48:                                               ; preds = %43, %30
  %49 = load i32, i32* %6, align 4
  %50 = icmp eq i32 %49, -1
  br i1 %50, label %51, label %61

51:                                               ; preds = %48
  %52 = load i32, i32* %5, align 4
  %53 = sext i32 %52 to i64
  %54 = getelementptr inbounds [20000 x i32], [20000 x i32]* %3, i64 0, i64 %53
  %55 = load i32, i32* %54, align 4
  %56 = load i32, i32* %7, align 4
  %57 = sext i32 %56 to i64
  %58 = getelementptr inbounds [20000 x i32], [20000 x i32]* %4, i64 0, i64 %57
  store i32 %55, i32* %58, align 4
  %59 = load i32, i32* %7, align 4
  %60 = add nsw i32 %59, 1
  store i32 %60, i32* %7, align 4
  br label %61

61:                                               ; preds = %51, %48
  br label %62

62:                                               ; preds = %61
  %63 = load i32, i32* %5, align 4
  %64 = add nsw i32 %63, -1
  store i32 %64, i32* %5, align 4
  br label %24

65:                                               ; preds = %24
  %66 = getelementptr inbounds [20000 x i32], [20000 x i32]* %3, i64 0, i64 0
  %67 = load i32, i32* %66, align 16
  %68 = call i32 (i8*, ...) @printf(i8* getelementptr inbounds ([3 x i8], [3 x i8]* @.str, i64 0, i64 0), i32 %67)
  %69 = load i32, i32* %7, align 4
  %70 = sub nsw i32 %69, 1
  store i32 %70, i32* %5, align 4
  br label %71

71:                                               ; preds = %80, %65
  %72 = load i32, i32* %5, align 4
  %73 = icmp sge i32 %72, 0
  br i1 %73, label %74, label %83

74:                                               ; preds = %71
  %75 = load i32, i32* %5, align 4
  %76 = sext i32 %75 to i64
  %77 = getelementptr inbounds [20000 x i32], [20000 x i32]* %4, i64 0, i64 %76
  %78 = load i32, i32* %77, align 4
  %79 = call i32 (i8*, ...) @printf(i8* getelementptr inbounds ([4 x i8], [4 x i8]* @.str.1, i64 0, i64 0), i32 %78)
  br label %80

80:                                               ; preds = %74
  %81 = load i32, i32* %5, align 4
  %82 = add nsw i32 %81, -1
  store i32 %82, i32* %5, align 4
  br label %71

83:                                               ; preds = %71
  %84 = load i32, i32* %1, align 4
  ret i32 %84
}

declare dso_local i32 @__isoc99_scanf(i8*, ...) #1

declare dso_local i32 @printf(i8*, ...) #1


!llvm.module.flags = !{!0}
!llvm.ident = !{!1}

!0 = !{i32 1, !"wchar_size", i32 4}
!1 = !{!"clang version 10.0.0-4ubuntu1 "}
